target datalayout = "e-m:e-p270:32:32-p271:32:32-p272:64:64-i64:64-i128:128-f80:128-n8:16:32:64-S128"
target triple = "x86_64-pc-linux-gnu"

%"class.clang::CodeGen::AggValueSlot" = type <{ %"class.clang::CodeGen::Address", %"class.clang::Qualifiers", i8, [7 x i8] }>
%"class.clang::CodeGen::Address" = type { %"class.llvm::PointerIntPair", ptr, %"class.clang::CharUnits", %"class.clang::CodeGen::CGPointerAuthInfo", ptr }
%"class.llvm::PointerIntPair" = type { %"struct.llvm::detail::PunnedPointer" }
%"struct.llvm::detail::PunnedPointer" = type { [8 x i8] }
%"class.clang::CharUnits" = type { i64 }
%"class.clang::CodeGen::CGPointerAuthInfo" = type { i8, ptr }
%"class.clang::Qualifiers" = type { i64 }
%"class.(anonymous namespace)::AggExprEmitter" = type <{ ptr, ptr, %"class.clang::CodeGen::AggValueSlot", i8, [7 x i8] }>
%"class.clang::CodeGen::RValue" = type <{ %union.anon.1331, i8, [7 x i8] }>
%union.anon.1331 = type { %"class.clang::CodeGen::Address" }
%class.anon.1547 = type { ptr, ptr }
%"class.clang::CodeGen::ReturnValueSlot" = type <{ %"class.clang::CodeGen::Address", i8, [7 x i8] }>

; Function Attrs: mustprogress nounwind uwtable
define internal void @"_ZZN12_GLOBAL__N_114AggExprEmitter13VisitCallExprEPKN5clang8CallExprEENK3$_0clENS1_7CodeGen15ReturnValueSlotE"(ptr dead_on_unwind noalias writable sret(%"class.clang::CodeGen::RValue") align 8 %0, ptr noundef nonnull align 8 dereferenceable(16) %1, ptr noundef byval(%"class.clang::CodeGen::ReturnValueSlot") align 8 %2) #0 align 2 {
  %4 = alloca ptr, align 8
  %5 = alloca %"class.clang::CodeGen::ReturnValueSlot", align 8
  store ptr %1, ptr %4, align 8
  %6 = load ptr, ptr %4, align 8
  %7 = getelementptr inbounds nuw %class.anon.1547, ptr %6, i32 0, i32 0
  %8 = load ptr, ptr %7, align 8
  %9 = getelementptr inbounds nuw %"class.(anonymous namespace)::AggExprEmitter", ptr %8, i32 0, i32 0
  %10 = load ptr, ptr %9, align 8
  %11 = getelementptr inbounds nuw %class.anon.1547, ptr %6, i32 0, i32 1
  %12 = load ptr, ptr %11, align 8
  %13 = load ptr, ptr %12, align 8
  call void @llvm.memcpy.p0.p0.i64(ptr align 8 %5, ptr align 8 %2, i64 56, i1 false)
  call void @_ZN5clang7CodeGen15CodeGenFunction12EmitCallExprEPKNS_8CallExprENS0_15ReturnValueSlotE(ptr dead_on_unwind writable sret(%"class.clang::CodeGen::RValue") align 8 %0, ptr noundef nonnull align 8 dereferenceable(6488) %10, ptr noundef %13, ptr noundef byval(%"class.clang::CodeGen::ReturnValueSlot") align 8 %5)
  ret void
}

; Function Attrs: mustprogress nounwind uwtable
define internal void @"_ZN4llvm12function_refIFN5clang7CodeGen6RValueENS2_15ReturnValueSlotEEE11callback_fnIZN12_GLOBAL__N_114AggExprEmitter13VisitCallExprEPKNS1_8CallExprEE3$_0EES3_lS4_"(ptr dead_on_unwind noalias writable sret(%"class.clang::CodeGen::RValue") align 8 %0, i64 noundef %1, ptr noundef byval(%"class.clang::CodeGen::ReturnValueSlot") align 8 %2) #0 align 2 {
  %4 = alloca i64, align 8
  %5 = alloca %"class.clang::CodeGen::ReturnValueSlot", align 8
  store i64 %1, ptr %4, align 8
  %6 = load i64, ptr %4, align 8
  %7 = inttoptr i64 %6 to ptr
  call void @llvm.memcpy.p0.p0.i64(ptr align 8 %5, ptr align 8 %2, i64 56, i1 false)
  call void @"_ZZN12_GLOBAL__N_114AggExprEmitter13VisitCallExprEPKN5clang8CallExprEENK3$_0clENS1_7CodeGen15ReturnValueSlotE"(ptr dead_on_unwind writable sret(%"class.clang::CodeGen::RValue") align 8 %0, ptr noundef nonnull align 8 dereferenceable(16) %7, ptr noundef byval(%"class.clang::CodeGen::ReturnValueSlot") align 8 %5)
  ret void
}