; Function Attrs: mustprogress nounwind uwtable
define internal void @"_ZN4llvm12function_refIFN5clang7CodeGen6RValueENS2_15ReturnValueSlotEEE11callback_fnIZN12_GLOBAL__N_114AggExprEmitter13VisitCallExprEPKNS1_8CallExprEE3$_0EES3_lS4_"(ptr dead_on_unwind noalias writable sret(%"class.clang::CodeGen::RValue") align 8 %0, i64 noundef %1, ptr nocapture noundef readonly byval(%"class.clang::CodeGen::ReturnValueSlot") align 8 %2) #0 align 2 {
  %4 = inttoptr i64 %1 to ptr
  %.val = load ptr, ptr %4, align 8
  %5 = getelementptr i8, ptr %4, i64 8
  %.val1 = load ptr, ptr %5, align 8
  %.val.val = load ptr, ptr %.val, align 8
  %.val1.val = load ptr, ptr %.val1, align 8
  tail call void @_ZN5clang7CodeGen15CodeGenFunction12EmitCallExprEPKNS_8CallExprENS0_15ReturnValueSlotE(ptr dead_on_unwind writable sret(%"class.clang::CodeGen::RValue") align 8 %0, ptr noundef nonnull align 8 dereferenceable(6488) %.val.val, ptr noundef %.val1.val, ptr noundef nonnull byval(%"class.clang::CodeGen::ReturnValueSlot") align 8 %2) #15
  ret void
}